target datalayout = "e-m:e-p270:32:32-p271:32:32-p272:64:64-i64:64-i128:128-f80:128-n8:16:32:64-S128"
target triple = "x86_64-pc-linux-gnu"

%struct.If_Cut_t_ = type <{ float, float, float, float, i32, i32, i32, i64, [0 x i32] }>
%struct.If_Man_t_ = type { ptr, ptr, ptr, ptr, ptr, ptr, ptr, ptr, [5 x i32], i32, float, float, float, float, i32, float, i32, i32, [4 x ptr], ptr, i32, i32, i32, ptr, [3 x [32 x i32]], i32, i32, i32, ptr, ptr, ptr, ptr, ptr, ptr, ptr, i32, i32, i32, [16 x i32], i32, i32, i32, i32, ptr, ptr, ptr, ptr, ptr, i32, i32, [32 x i32], [32 x i32], i32, i32, i32, i32, ptr, [16 x ptr], [16 x ptr], [16 x ptr], [16 x ptr], [16 x ptr], [16 x ptr], [16 x ptr], ptr, ptr, ptr, ptr, [32 x i8], i32, i32, i32, [6 x i64], [2 x i32], [2 x i32], ptr, [15 x i32], ptr, ptr, ptr, [16 x i32], ptr, ptr, ptr, ptr, [2 x i32], [2 x i32], [2 x ptr], ptr }
%struct.If_Par_t_ = type { i32, i32, i32, i32, i32, i32, float, float, i32, i32, i32, i32, i32, i32, i32, i32, i32, i32, i32, i32, i32, i32, i32, i32, i32, i32, i32, i32, i32, i32, i32, i32, i32, i32, i32, i32, i32, i32, i32, i32, i32, i32, i32, i32, i32, i32, i32, i32, i32, i32, ptr, i32, float, i32, i32, i32, i32, i32, i32, i32, i32, i32, i32, i32, i32, i32, i32, float, float, float, ptr, ptr, ptr, ptr, ptr, ptr, ptr, ptr, ptr }
%struct.If_Obj_t_ = type { i32, i32, i32, i32, i32, i32, ptr, ptr, ptr, float, float, float, %union.anon, ptr, %struct.If_Cut_t_ }
%union.anon = type { ptr }
%struct.If_LibLut_t_ = type { ptr, i32, i32, [33 x float], [33 x [33 x float]] }
%struct.Vec_Ptr_t_ = type { i32, i32, ptr }

; Function Attrs: inlinehint nounwind uwtable
define internal ptr @Vec_PtrEntry(ptr noundef %0, i32 noundef %1) #2 {
  %3 = alloca ptr, align 8
  %4 = alloca i32, align 4
  store ptr %0, ptr %3, align 8, !tbaa !134
  store i32 %1, ptr %4, align 4, !tbaa !8
  %5 = load ptr, ptr %3, align 8, !tbaa !134
  %6 = getelementptr inbounds nuw %struct.Vec_Ptr_t_, ptr %5, i32 0, i32 2
  %7 = load ptr, ptr %6, align 8, !tbaa !137
  %8 = load i32, ptr %4, align 4, !tbaa !8
  %9 = sext i32 %8 to i64
  %10 = getelementptr inbounds ptr, ptr %7, i64 %9
  %11 = load ptr, ptr %10, align 8, !tbaa !138
  ret ptr %11
}

; Function Attrs: inlinehint nounwind uwtable
define internal ptr @If_ObjCutBest(ptr noundef %0) #2 {
  %2 = alloca ptr, align 8
  store ptr %0, ptr %2, align 8, !tbaa !99
  %3 = load ptr, ptr %2, align 8, !tbaa !99
  %4 = getelementptr inbounds nuw %struct.If_Obj_t_, ptr %3, i32 0, i32 14
  ret ptr %4
}

; Function Attrs: inlinehint nounwind uwtable
define internal i32 @If_ObjIsAnd(ptr noundef %0) #2 {
  %2 = alloca ptr, align 8
  store ptr %0, ptr %2, align 8, !tbaa !99
  %3 = load ptr, ptr %2, align 8, !tbaa !99
  %4 = load i32, ptr %3, align 8
  %5 = and i32 %4, 15
  %6 = icmp eq i32 %5, 4
  %7 = zext i1 %6 to i32
  ret i32 %7
}

; Function Attrs: inlinehint nounwind uwtable
define internal ptr @If_ManObj(ptr noundef %0, i32 noundef %1) #2 {
  %3 = alloca ptr, align 8
  %4 = alloca i32, align 4
  store ptr %0, ptr %3, align 8, !tbaa !35
  store i32 %1, ptr %4, align 4, !tbaa !8
  %5 = load ptr, ptr %3, align 8, !tbaa !35
  %6 = getelementptr inbounds nuw %struct.If_Man_t_, ptr %5, i32 0, i32 5
  %7 = load ptr, ptr %6, align 8, !tbaa !104
  %8 = load i32, ptr %4, align 4, !tbaa !8
  %9 = call ptr @Vec_PtrEntry(ptr noundef %7, i32 noundef %8)
  ret ptr %9
}

; Function Attrs: inlinehint nounwind uwtable
define internal float @If_CutLutArea(ptr noundef %0, ptr noundef %1) #2 {
  %3 = alloca ptr, align 8
  %4 = alloca ptr, align 8
  store ptr %0, ptr %3, align 8, !tbaa !35
  store ptr %1, ptr %4, align 8, !tbaa !15
  %5 = load ptr, ptr %4, align 8, !tbaa !15
  %6 = getelementptr inbounds nuw %struct.If_Cut_t_, ptr %5, i32 0, i32 7
  %7 = load i64, ptr %6, align 4
  %8 = lshr i64 %7, 15
  %9 = and i64 %8, 1
  %10 = trunc i64 %9 to i32
  %11 = icmp ne i32 %10, 0
  br i1 %11, label %12, label %19

12:                                               ; preds = %2
  %13 = load ptr, ptr %3, align 8, !tbaa !35
  %14 = getelementptr inbounds nuw %struct.If_Man_t_, ptr %13, i32 0, i32 1
  %15 = load ptr, ptr %14, align 8, !tbaa !65
  %16 = getelementptr inbounds nuw %struct.If_Par_t_, ptr %15, i32 0, i32 11
  %17 = load i32, ptr %16, align 4, !tbaa !110
  %18 = sitofp i32 %17 to float
  br label %62

19:                                               ; preds = %2
  %20 = load ptr, ptr %4, align 8, !tbaa !15
  %21 = getelementptr inbounds nuw %struct.If_Cut_t_, ptr %20, i32 0, i32 7
  %22 = load i64, ptr %21, align 4
  %23 = lshr i64 %22, 13
  %24 = and i64 %23, 1
  %25 = trunc i64 %24 to i32
  %26 = icmp ne i32 %25, 0
  br i1 %26, label %27, label %34

27:                                               ; preds = %19
  %28 = load ptr, ptr %4, align 8, !tbaa !15
  %29 = getelementptr inbounds nuw %struct.If_Cut_t_, ptr %28, i32 0, i32 7
  %30 = load i64, ptr %29, align 4
  %31 = and i64 %30, 4095
  %32 = trunc i64 %31 to i32
  %33 = uitofp i32 %32 to float
  br label %60

34:                                               ; preds = %19
  %35 = load ptr, ptr %3, align 8, !tbaa !35
  %36 = getelementptr inbounds nuw %struct.If_Man_t_, ptr %35, i32 0, i32 1
  %37 = load ptr, ptr %36, align 8, !tbaa !65
  %38 = getelementptr inbounds nuw %struct.If_Par_t_, ptr %37, i32 0, i32 70
  %39 = load ptr, ptr %38, align 8, !tbaa !111
  %40 = icmp ne ptr %39, null
  br i1 %40, label %41, label %57

41:                                               ; preds = %34
  %42 = load ptr, ptr %3, align 8, !tbaa !35
  %43 = getelementptr inbounds nuw %struct.If_Man_t_, ptr %42, i32 0, i32 1
  %44 = load ptr, ptr %43, align 8, !tbaa !65
  %45 = getelementptr inbounds nuw %struct.If_Par_t_, ptr %44, i32 0, i32 70
  %46 = load ptr, ptr %45, align 8, !tbaa !111
  %47 = getelementptr inbounds nuw %struct.If_LibLut_t_, ptr %46, i32 0, i32 3
  %48 = load ptr, ptr %4, align 8, !tbaa !15
  %49 = getelementptr inbounds nuw %struct.If_Cut_t_, ptr %48, i32 0, i32 7
  %50 = load i64, ptr %49, align 4
  %51 = lshr i64 %50, 24
  %52 = and i64 %51, 255
  %53 = trunc i64 %52 to i32
  %54 = zext i32 %53 to i64
  %55 = getelementptr inbounds nuw [33 x float], ptr %47, i64 0, i64 %54
  %56 = load float, ptr %55, align 4, !tbaa !106
  br label %58

57:                                               ; preds = %34
  br label %58

58:                                               ; preds = %57, %41
  %59 = phi float [ %56, %41 ], [ 1.000000e+00, %57 ]
  br label %60

60:                                               ; preds = %58, %27
  %61 = phi float [ %33, %27 ], [ %59, %58 ]
  br label %62

62:                                               ; preds = %60, %12
  %63 = phi float [ %18, %12 ], [ %61, %60 ]
  ret float %63
}

; Function Attrs: nounwind uwtable
define float @If_CutAreaRef(ptr noundef %0, ptr noundef %1) #0 {
  %3 = alloca ptr, align 8
  %4 = alloca ptr, align 8
  %5 = alloca ptr, align 8
  %6 = alloca float, align 4
  %7 = alloca i32, align 4
  store ptr %0, ptr %3, align 8, !tbaa !35
  store ptr %1, ptr %4, align 8, !tbaa !15
  call void @llvm.lifetime.start.p0(i64 8, ptr %5) #9
  call void @llvm.lifetime.start.p0(i64 4, ptr %6) #9
  call void @llvm.lifetime.start.p0(i64 4, ptr %7) #9
  %8 = load ptr, ptr %3, align 8, !tbaa !35
  %9 = load ptr, ptr %4, align 8, !tbaa !15
  %10 = call float @If_CutLutArea(ptr noundef %8, ptr noundef %9)
  store float %10, ptr %6, align 4, !tbaa !106
  store i32 0, ptr %7, align 4, !tbaa !8
  br label %11

11:                                               ; preds = %50, %2
  %12 = load i32, ptr %7, align 4, !tbaa !8
  %13 = load ptr, ptr %4, align 8, !tbaa !15
  %14 = getelementptr inbounds nuw %struct.If_Cut_t_, ptr %13, i32 0, i32 7
  %15 = load i64, ptr %14, align 4
  %16 = lshr i64 %15, 24
  %17 = and i64 %16, 255
  %18 = trunc i64 %17 to i32
  %19 = icmp slt i32 %12, %18
  br i1 %19, label %20, label %30

20:                                               ; preds = %11
  %21 = load ptr, ptr %3, align 8, !tbaa !35
  %22 = load ptr, ptr %4, align 8, !tbaa !15
  %23 = getelementptr inbounds nuw %struct.If_Cut_t_, ptr %22, i32 0, i32 8
  %24 = load i32, ptr %7, align 4, !tbaa !8
  %25 = sext i32 %24 to i64
  %26 = getelementptr inbounds [0 x i32], ptr %23, i64 0, i64 %25
  %27 = load i32, ptr %26, align 4, !tbaa !8
  %28 = call ptr @If_ManObj(ptr noundef %21, i32 noundef %27)
  store ptr %28, ptr %5, align 8, !tbaa !99
  %29 = icmp ne ptr %28, null
  br label %30

30:                                               ; preds = %20, %11
  %31 = phi i1 [ false, %11 ], [ %29, %20 ]
  br i1 %31, label %32, label %53

32:                                               ; preds = %30
  %33 = load ptr, ptr %5, align 8, !tbaa !99
  %34 = getelementptr inbounds nuw %struct.If_Obj_t_, ptr %33, i32 0, i32 3
  %35 = load i32, ptr %34, align 4, !tbaa !107
  %36 = add nsw i32 %35, 1
  store i32 %36, ptr %34, align 4, !tbaa !107
  %37 = icmp sgt i32 %35, 0
  br i1 %37, label %42, label %38

38:                                               ; preds = %32
  %39 = load ptr, ptr %5, align 8, !tbaa !99
  %40 = call i32 @If_ObjIsAnd(ptr noundef %39)
  %41 = icmp ne i32 %40, 0
  br i1 %41, label %43, label %42

42:                                               ; preds = %38, %32
  br label %50

43:                                               ; preds = %38
  %44 = load ptr, ptr %3, align 8, !tbaa !35
  %45 = load ptr, ptr %5, align 8, !tbaa !99
  %46 = call ptr @If_ObjCutBest(ptr noundef %45)
  %47 = call float @If_CutAreaRef(ptr noundef %44, ptr noundef %46)
  %48 = load float, ptr %6, align 4, !tbaa !106
  %49 = fadd float %48, %47
  store float %49, ptr %6, align 4, !tbaa !106
  br label %50

50:                                               ; preds = %43, %42
  %51 = load i32, ptr %7, align 4, !tbaa !8
  %52 = add nsw i32 %51, 1
  store i32 %52, ptr %7, align 4, !tbaa !8
  br label %11, !llvm.loop !120

53:                                               ; preds = %30
  %54 = load float, ptr %6, align 4, !tbaa !106
  call void @llvm.lifetime.end.p0(i64 4, ptr %7) #9
  call void @llvm.lifetime.end.p0(i64 4, ptr %6) #9
  call void @llvm.lifetime.end.p0(i64 8, ptr %5) #9
  ret float %54
}